; Function Attrs: nounwind uwtable
define ptr @dt_bauhaus_combobox_get_entry(ptr noundef %0, i32 noundef %1) local_unnamed_addr #0 {
  %3 = load atomic i64, ptr @dt_bh_get_type.static_g_define_type_id seq_cst, align 8
  %.not.i.i.i = icmp eq i64 %3, 0
  br i1 %.not.i.i.i, label %4, label %DT_BAUHAUS_WIDGET.exit.i

4:                                                ; preds = %2
  %5 = tail call i32 @g_once_init_enter(ptr noundef nonnull @dt_bh_get_type.static_g_define_type_id) #19
  %.not4.i.i.i = icmp eq i32 %5, 0
  br i1 %.not4.i.i.i, label %DT_BAUHAUS_WIDGET.exit.i, label %6

6:                                                ; preds = %4
  %7 = tail call fastcc i64 @dt_bh_get_type_once()
  tail call void @g_once_init_leave(ptr noundef nonnull @dt_bh_get_type.static_g_define_type_id, i64 noundef %7) #19
  br label %DT_BAUHAUS_WIDGET.exit.i

DT_BAUHAUS_WIDGET.exit.i:                         ; preds = %6, %4, %2
  %8 = load i64, ptr @dt_bh_get_type.static_g_define_type_id, align 8, !tbaa !6
  %9 = tail call ptr @g_type_check_instance_cast(ptr noundef %0, i64 noundef %8) #19
  %10 = getelementptr inbounds nuw i8, ptr %9, i64 40
  %11 = load i32, ptr %10, align 8, !tbaa !105
  %.not.i = icmp eq i32 %11, 2
  br i1 %.not.i, label %12, label %_combobox_data.exit.thread

12:                                               ; preds = %DT_BAUHAUS_WIDGET.exit.i
  %13 = getelementptr inbounds nuw i8, ptr %9, i64 408
  %14 = load i32, ptr %13, align 8, !tbaa !137
  %15 = getelementptr inbounds nuw i8, ptr %9, i64 440
  %16 = load ptr, ptr %15, align 8, !tbaa !128
  %17 = getelementptr inbounds nuw i8, ptr %16, i64 8
  %18 = load i32, ptr %17, align 8, !tbaa !131
  %.not8.i = icmp ult i32 %14, %18
  br i1 %.not8.i, label %_combobox_data.exit, label %19

19:                                               ; preds = %12
  store i32 -1, ptr %13, align 8, !tbaa !137
  br label %_combobox_data.exit

_combobox_data.exit:                              ; preds = %12, %19
  %20 = icmp sgt i32 %1, -1
  %.not = icmp ult i32 %1, %18
  %or.cond = and i1 %20, %.not
  br i1 %or.cond, label %21, label %_combobox_data.exit.thread

21:                                               ; preds = %_combobox_data.exit
  %.val.val = load ptr, ptr %16, align 8, !tbaa !133
  %22 = zext nneg i32 %1 to i64
  %23 = getelementptr inbounds nuw ptr, ptr %.val.val, i64 %22
  %24 = load ptr, ptr %23, align 8, !tbaa !134
  %25 = load ptr, ptr %24, align 8, !tbaa !149
  br label %_combobox_data.exit.thread

_combobox_data.exit.thread:                       ; preds = %DT_BAUHAUS_WIDGET.exit.i, %_combobox_data.exit, %21
  %.0 = phi ptr [ %25, %21 ], [ null, %_combobox_data.exit ], [ null, %DT_BAUHAUS_WIDGET.exit.i ]
  ret ptr %.0
}